target datalayout = "e-m:e-p270:32:32-p271:32:32-p272:64:64-i64:64-i128:128-f80:128-n8:16:32:64-S128"
target triple = "x86_64-unknown-linux-gnu"

%class.b2World = type <{ %class.b2BlockAllocator, %class.b2StackAllocator, %class.b2ContactManager, ptr, ptr, i32, i32, %struct.b2Vec2, i8, [7 x i8], ptr, ptr, float, i8, i8, i8, i8, i8, i8, i8, i8, %struct.b2Profile, [4 x i8] }>
%class.b2BlockAllocator = type { ptr, i32, i32, [14 x ptr] }
%class.b2StackAllocator = type <{ [102400 x i8], i32, i32, i32, [4 x i8], [32 x %struct.b2StackEntry], i32, [4 x i8] }>
%struct.b2StackEntry = type { ptr, i32, i8 }
%class.b2ContactManager = type { %class.b2BroadPhase, ptr, i32, ptr, ptr, ptr }
%class.b2BroadPhase = type <{ %class.b2DynamicTree, i32, [4 x i8], ptr, i32, i32, ptr, i32, i32, i32, [4 x i8] }>
%class.b2DynamicTree = type { i32, ptr, i32, i32, i32, i32 }
%struct.b2Vec2 = type { float, float }
%struct.b2Profile = type { float, float, float, float, float, float, float, float }
%class.b2Body = type { i32, i16, i32, %struct.b2Transform, %struct.b2Sweep, %struct.b2Vec2, float, %struct.b2Vec2, float, ptr, ptr, ptr, ptr, i32, ptr, ptr, float, float, float, float, float, float, float, float, %struct.b2BodyUserData }
%struct.b2Transform = type { %struct.b2Vec2, %struct.b2Rot }
%struct.b2Rot = type { float, float }
%struct.b2Sweep = type { %struct.b2Vec2, %struct.b2Vec2, %struct.b2Vec2, float, float, float }
%struct.b2BodyUserData = type { i64 }
%class.b2Timer = type { i64, i64 }
%struct.b2TimeStep = type { float, float, float, i32, i32, i8 }

; Function Attrs: mustprogress nounwind uwtable
define linkonce_odr hidden noundef ptr @_ZN6b2Body7GetNextEv(ptr noundef nonnull align 8 dereferenceable(184) %this) #5 comdat align 2 {
entry:
  %this.addr = alloca ptr, align 8
  store ptr %this, ptr %this.addr, align 8
  %this1 = load ptr, ptr %this.addr, align 8
  %m_next = getelementptr inbounds %class.b2Body, ptr %this1, i32 0, i32 11
  %0 = load ptr, ptr %m_next, align 8
  ret ptr %0
}

; Function Attrs: mustprogress nounwind uwtable
define linkonce_odr hidden void @_ZN6b2Vec27SetZeroEv(ptr noundef nonnull align 4 dereferenceable(8) %this) #5 comdat align 2 {
entry:
  %this.addr = alloca ptr, align 8
  store ptr %this, ptr %this.addr, align 8
  %this1 = load ptr, ptr %this.addr, align 8
  %x = getelementptr inbounds %struct.b2Vec2, ptr %this1, i32 0, i32 0
  store float 0.000000e+00, ptr %x, align 4
  %y = getelementptr inbounds %struct.b2Vec2, ptr %this1, i32 0, i32 1
  store float 0.000000e+00, ptr %y, align 4
  ret void
}

; Function Attrs: mustprogress uwtable
define void @_ZN7b2World11ClearForcesEv(ptr noundef nonnull align 8 dereferenceable(103284) %this) #0 align 2 {
entry:
  %this.addr = alloca ptr, align 8
  %body = alloca ptr, align 8
  store ptr %this, ptr %this.addr, align 8
  %this1 = load ptr, ptr %this.addr, align 8
  %m_bodyList = getelementptr inbounds %class.b2World, ptr %this1, i32 0, i32 3
  %0 = load ptr, ptr %m_bodyList, align 8
  store ptr %0, ptr %body, align 8
  br label %for.cond

for.cond:                                         ; preds = %for.inc, %entry
  %1 = load ptr, ptr %body, align 8
  %tobool = icmp ne ptr %1, null
  br i1 %tobool, label %for.body, label %for.end

for.body:                                         ; preds = %for.cond
  %2 = load ptr, ptr %body, align 8
  %m_force = getelementptr inbounds %class.b2Body, ptr %2, i32 0, i32 7
  call void @_ZN6b2Vec27SetZeroEv(ptr noundef nonnull align 4 dereferenceable(8) %m_force)
  %3 = load ptr, ptr %body, align 8
  %m_torque = getelementptr inbounds %class.b2Body, ptr %3, i32 0, i32 8
  store float 0.000000e+00, ptr %m_torque, align 4
  br label %for.inc

for.inc:                                          ; preds = %for.body
  %4 = load ptr, ptr %body, align 8
  %call = call noundef ptr @_ZN6b2Body7GetNextEv(ptr noundef nonnull align 8 dereferenceable(184) %4)
  store ptr %call, ptr %body, align 8
  br label %for.cond, !llvm.loop !30

for.end:                                          ; preds = %for.cond
  ret void
}

; Function Attrs: mustprogress uwtable
define void @_ZN7b2World4StepEfii(ptr noundef nonnull align 8 dereferenceable(103284) %this, float noundef %dt, i32 noundef %velocityIterations, i32 noundef %positionIterations) #0 align 2 {
entry:
  %this.addr = alloca ptr, align 8
  %dt.addr = alloca float, align 4
  %velocityIterations.addr = alloca i32, align 4
  %positionIterations.addr = alloca i32, align 4
  %stepTimer = alloca %class.b2Timer, align 8
  %step = alloca %struct.b2TimeStep, align 4
  %timer = alloca %class.b2Timer, align 8
  %timer15 = alloca %class.b2Timer, align 8
  %timer24 = alloca %class.b2Timer, align 8
  store ptr %this, ptr %this.addr, align 8
  store float %dt, ptr %dt.addr, align 4
  store i32 %velocityIterations, ptr %velocityIterations.addr, align 4
  store i32 %positionIterations, ptr %positionIterations.addr, align 4
  %this1 = load ptr, ptr %this.addr, align 8
  call void @_ZN7b2TimerC1Ev(ptr noundef nonnull align 8 dereferenceable(16) %stepTimer)
  %m_newContacts = getelementptr inbounds %class.b2World, ptr %this1, i32 0, i32 13
  %0 = load i8, ptr %m_newContacts, align 4
  %tobool = trunc i8 %0 to i1
  br i1 %tobool, label %if.then, label %if.end

if.then:                                          ; preds = %entry
  %m_contactManager = getelementptr inbounds %class.b2World, ptr %this1, i32 0, i32 2
  call void @_ZN16b2ContactManager15FindNewContactsEv(ptr noundef nonnull align 8 dereferenceable(120) %m_contactManager)
  %m_newContacts2 = getelementptr inbounds %class.b2World, ptr %this1, i32 0, i32 13
  store i8 0, ptr %m_newContacts2, align 4
  br label %if.end

if.end:                                           ; preds = %if.then, %entry
  %m_locked = getelementptr inbounds %class.b2World, ptr %this1, i32 0, i32 14
  store i8 1, ptr %m_locked, align 1
  %1 = load float, ptr %dt.addr, align 4
  %dt3 = getelementptr inbounds %struct.b2TimeStep, ptr %step, i32 0, i32 0
  store float %1, ptr %dt3, align 4
  %2 = load i32, ptr %velocityIterations.addr, align 4
  %velocityIterations4 = getelementptr inbounds %struct.b2TimeStep, ptr %step, i32 0, i32 3
  store i32 %2, ptr %velocityIterations4, align 4
  %3 = load i32, ptr %positionIterations.addr, align 4
  %positionIterations5 = getelementptr inbounds %struct.b2TimeStep, ptr %step, i32 0, i32 4
  store i32 %3, ptr %positionIterations5, align 4
  %4 = load float, ptr %dt.addr, align 4
  %cmp = fcmp ogt float %4, 0.000000e+00
  br i1 %cmp, label %if.then6, label %if.else

if.then6:                                         ; preds = %if.end
  %5 = load float, ptr %dt.addr, align 4
  %div = fdiv float 1.000000e+00, %5
  %inv_dt = getelementptr inbounds %struct.b2TimeStep, ptr %step, i32 0, i32 1
  store float %div, ptr %inv_dt, align 4
  br label %if.end8

if.else:                                          ; preds = %if.end
  %inv_dt7 = getelementptr inbounds %struct.b2TimeStep, ptr %step, i32 0, i32 1
  store float 0.000000e+00, ptr %inv_dt7, align 4
  br label %if.end8

if.end8:                                          ; preds = %if.else, %if.then6
  %m_inv_dt0 = getelementptr inbounds %class.b2World, ptr %this1, i32 0, i32 12
  %6 = load float, ptr %m_inv_dt0, align 8
  %7 = load float, ptr %dt.addr, align 4
  %mul = fmul float %6, %7
  %dtRatio = getelementptr inbounds %struct.b2TimeStep, ptr %step, i32 0, i32 2
  store float %mul, ptr %dtRatio, align 4
  %m_warmStarting = getelementptr inbounds %class.b2World, ptr %this1, i32 0, i32 16
  %8 = load i8, ptr %m_warmStarting, align 1
  %tobool9 = trunc i8 %8 to i1
  %warmStarting = getelementptr inbounds %struct.b2TimeStep, ptr %step, i32 0, i32 5
  %frombool = zext i1 %tobool9 to i8
  store i8 %frombool, ptr %warmStarting, align 4
  call void @_ZN7b2TimerC1Ev(ptr noundef nonnull align 8 dereferenceable(16) %timer)
  %m_contactManager10 = getelementptr inbounds %class.b2World, ptr %this1, i32 0, i32 2
  call void @_ZN16b2ContactManager7CollideEv(ptr noundef nonnull align 8 dereferenceable(120) %m_contactManager10)
  %call = call noundef float @_ZNK7b2Timer15GetMillisecondsEv(ptr noundef nonnull align 8 dereferenceable(16) %timer)
  %m_profile = getelementptr inbounds %class.b2World, ptr %this1, i32 0, i32 21
  %collide = getelementptr inbounds %struct.b2Profile, ptr %m_profile, i32 0, i32 1
  store float %call, ptr %collide, align 4
  %m_stepComplete = getelementptr inbounds %class.b2World, ptr %this1, i32 0, i32 19
  %9 = load i8, ptr %m_stepComplete, align 2
  %tobool11 = trunc i8 %9 to i1
  br i1 %tobool11, label %land.lhs.true, label %if.end18

land.lhs.true:                                    ; preds = %if.end8
  %dt12 = getelementptr inbounds %struct.b2TimeStep, ptr %step, i32 0, i32 0
  %10 = load float, ptr %dt12, align 4
  %cmp13 = fcmp ogt float %10, 0.000000e+00
  br i1 %cmp13, label %if.then14, label %if.end18

if.then14:                                        ; preds = %land.lhs.true
  call void @_ZN7b2TimerC1Ev(ptr noundef nonnull align 8 dereferenceable(16) %timer15)
  call void @_ZN7b2World5SolveERK10b2TimeStep(ptr noundef nonnull align 8 dereferenceable(103284) %this1, ptr noundef nonnull align 4 dereferenceable(24) %step)
  %call16 = call noundef float @_ZNK7b2Timer15GetMillisecondsEv(ptr noundef nonnull align 8 dereferenceable(16) %timer15)
  %m_profile17 = getelementptr inbounds %class.b2World, ptr %this1, i32 0, i32 21
  %solve = getelementptr inbounds %struct.b2Profile, ptr %m_profile17, i32 0, i32 2
  store float %call16, ptr %solve, align 4
  br label %if.end18

if.end18:                                         ; preds = %if.then14, %land.lhs.true, %if.end8
  %m_continuousPhysics = getelementptr inbounds %class.b2World, ptr %this1, i32 0, i32 17
  %11 = load i8, ptr %m_continuousPhysics, align 8
  %tobool19 = trunc i8 %11 to i1
  br i1 %tobool19, label %land.lhs.true20, label %if.end27

land.lhs.true20:                                  ; preds = %if.end18
  %dt21 = getelementptr inbounds %struct.b2TimeStep, ptr %step, i32 0, i32 0
  %12 = load float, ptr %dt21, align 4
  %cmp22 = fcmp ogt float %12, 0.000000e+00
  br i1 %cmp22, label %if.then23, label %if.end27

if.then23:                                        ; preds = %land.lhs.true20
  call void @_ZN7b2TimerC1Ev(ptr noundef nonnull align 8 dereferenceable(16) %timer24)
  call void @_ZN7b2World8SolveTOIERK10b2TimeStep(ptr noundef nonnull align 8 dereferenceable(103284) %this1, ptr noundef nonnull align 4 dereferenceable(24) %step)
  %call25 = call noundef float @_ZNK7b2Timer15GetMillisecondsEv(ptr noundef nonnull align 8 dereferenceable(16) %timer24)
  %m_profile26 = getelementptr inbounds %class.b2World, ptr %this1, i32 0, i32 21
  %solveTOI = getelementptr inbounds %struct.b2Profile, ptr %m_profile26, i32 0, i32 7
  store float %call25, ptr %solveTOI, align 4
  br label %if.end27

if.end27:                                         ; preds = %if.then23, %land.lhs.true20, %if.end18
  %dt28 = getelementptr inbounds %struct.b2TimeStep, ptr %step, i32 0, i32 0
  %13 = load float, ptr %dt28, align 4
  %cmp29 = fcmp ogt float %13, 0.000000e+00
  br i1 %cmp29, label %if.then30, label %if.end33

if.then30:                                        ; preds = %if.end27
  %inv_dt31 = getelementptr inbounds %struct.b2TimeStep, ptr %step, i32 0, i32 1
  %14 = load float, ptr %inv_dt31, align 4
  %m_inv_dt032 = getelementptr inbounds %class.b2World, ptr %this1, i32 0, i32 12
  store float %14, ptr %m_inv_dt032, align 8
  br label %if.end33

if.end33:                                         ; preds = %if.then30, %if.end27
  %m_clearForces = getelementptr inbounds %class.b2World, ptr %this1, i32 0, i32 15
  %15 = load i8, ptr %m_clearForces, align 2
  %tobool34 = trunc i8 %15 to i1
  br i1 %tobool34, label %if.then35, label %if.end36

if.then35:                                        ; preds = %if.end33
  call void @_ZN7b2World11ClearForcesEv(ptr noundef nonnull align 8 dereferenceable(103284) %this1)
  br label %if.end36

if.end36:                                         ; preds = %if.then35, %if.end33
  %m_locked37 = getelementptr inbounds %class.b2World, ptr %this1, i32 0, i32 14
  store i8 0, ptr %m_locked37, align 1
  %call38 = call noundef float @_ZNK7b2Timer15GetMillisecondsEv(ptr noundef nonnull align 8 dereferenceable(16) %stepTimer)
  %m_profile39 = getelementptr inbounds %class.b2World, ptr %this1, i32 0, i32 21
  %step40 = getelementptr inbounds %struct.b2Profile, ptr %m_profile39, i32 0, i32 0
  store float %call38, ptr %step40, align 4
  ret void
}