; Function Attrs: mustprogress uwtable
define void @_ZN7b2World4StepEfii(ptr noundef nonnull align 8 dereferenceable(103284) %this, float noundef %dt, i32 noundef %velocityIterations, i32 noundef %positionIterations) local_unnamed_addr #0 align 2 {
entry:
  %stepTimer = alloca %class.b2Timer, align 8
  %step = alloca %struct.b2TimeStep, align 4
  %timer = alloca %class.b2Timer, align 8
  %timer15 = alloca %class.b2Timer, align 8
  %timer24 = alloca %class.b2Timer, align 8
  call void @_ZN7b2TimerC1Ev(ptr noundef nonnull align 8 dereferenceable(16) %stepTimer)
  %m_newContacts = getelementptr inbounds nuw i8, ptr %this, i64 103244
  %0 = load i8, ptr %m_newContacts, align 4
  %tobool = trunc i8 %0 to i1
  br i1 %tobool, label %if.then, label %if.end

if.then:                                          ; preds = %entry
  %m_contactManager = getelementptr inbounds nuw i8, ptr %this, i64 103064
  call void @_ZN16b2ContactManager15FindNewContactsEv(ptr noundef nonnull align 8 dereferenceable(120) %m_contactManager)
  store i8 0, ptr %m_newContacts, align 4
  br label %if.end

if.end:                                           ; preds = %if.then, %entry
  %m_locked = getelementptr inbounds nuw i8, ptr %this, i64 103245
  store i8 1, ptr %m_locked, align 1
  store float %dt, ptr %step, align 4
  %velocityIterations4 = getelementptr inbounds nuw i8, ptr %step, i64 12
  store i32 %velocityIterations, ptr %velocityIterations4, align 4
  %positionIterations5 = getelementptr inbounds nuw i8, ptr %step, i64 16
  store i32 %positionIterations, ptr %positionIterations5, align 4
  %cmp = fcmp ogt float %dt, 0.000000e+00
  %div = fdiv float 1.000000e+00, %dt
  %.sink = select i1 %cmp, float %div, float 0.000000e+00
  %1 = getelementptr inbounds nuw i8, ptr %step, i64 4
  store float %.sink, ptr %1, align 4
  %m_inv_dt0 = getelementptr inbounds nuw i8, ptr %this, i64 103240
  %2 = load float, ptr %m_inv_dt0, align 8
  %mul = fmul float %dt, %2
  %dtRatio = getelementptr inbounds nuw i8, ptr %step, i64 8
  store float %mul, ptr %dtRatio, align 4
  %m_warmStarting = getelementptr inbounds nuw i8, ptr %this, i64 103247
  %3 = load i8, ptr %m_warmStarting, align 1
  %warmStarting = getelementptr inbounds nuw i8, ptr %step, i64 20
  %frombool = and i8 %3, 1
  store i8 %frombool, ptr %warmStarting, align 4
  call void @_ZN7b2TimerC1Ev(ptr noundef nonnull align 8 dereferenceable(16) %timer)
  %m_contactManager10 = getelementptr inbounds nuw i8, ptr %this, i64 103064
  call void @_ZN16b2ContactManager7CollideEv(ptr noundef nonnull align 8 dereferenceable(120) %m_contactManager10)
  %call = call noundef float @_ZNK7b2Timer15GetMillisecondsEv(ptr noundef nonnull align 8 dereferenceable(16) %timer)
  %collide = getelementptr inbounds nuw i8, ptr %this, i64 103256
  store float %call, ptr %collide, align 8
  %m_stepComplete = getelementptr inbounds nuw i8, ptr %this, i64 103250
  %4 = load i8, ptr %m_stepComplete, align 2
  %tobool11 = trunc i8 %4 to i1
  %or.cond = and i1 %cmp, %tobool11
  br i1 %or.cond, label %if.then14, label %if.end18

if.then14:                                        ; preds = %if.end
  call void @_ZN7b2TimerC1Ev(ptr noundef nonnull align 8 dereferenceable(16) %timer15)
  call void @_ZN7b2World5SolveERK10b2TimeStep(ptr noundef nonnull align 8 dereferenceable(103284) %this, ptr noundef nonnull align 4 dereferenceable(24) %step)
  %call16 = call noundef float @_ZNK7b2Timer15GetMillisecondsEv(ptr noundef nonnull align 8 dereferenceable(16) %timer15)
  %solve = getelementptr inbounds nuw i8, ptr %this, i64 103260
  store float %call16, ptr %solve, align 4
  %.pre = load float, ptr %step, align 4
  br label %if.end18

if.end18:                                         ; preds = %if.then14, %if.end
  %5 = phi float [ %.pre, %if.then14 ], [ %dt, %if.end ]
  %m_continuousPhysics = getelementptr inbounds nuw i8, ptr %this, i64 103248
  %6 = load i8, ptr %m_continuousPhysics, align 8
  %tobool19 = trunc i8 %6 to i1
  %cmp22 = fcmp ogt float %5, 0.000000e+00
  %or.cond1 = select i1 %tobool19, i1 %cmp22, i1 false
  br i1 %or.cond1, label %if.then23, label %if.end27

if.then23:                                        ; preds = %if.end18
  call void @_ZN7b2TimerC1Ev(ptr noundef nonnull align 8 dereferenceable(16) %timer24)
  call void @_ZN7b2World8SolveTOIERK10b2TimeStep(ptr noundef nonnull align 8 dereferenceable(103284) %this, ptr noundef nonnull align 4 dereferenceable(24) %step)
  %call25 = call noundef float @_ZNK7b2Timer15GetMillisecondsEv(ptr noundef nonnull align 8 dereferenceable(16) %timer24)
  %solveTOI = getelementptr inbounds nuw i8, ptr %this, i64 103280
  store float %call25, ptr %solveTOI, align 8
  %.pr = load float, ptr %step, align 4
  br label %if.end27

if.end27:                                         ; preds = %if.then23, %if.end18
  %7 = phi float [ %.pr, %if.then23 ], [ %5, %if.end18 ]
  %cmp29 = fcmp ogt float %7, 0.000000e+00
  br i1 %cmp29, label %if.then30, label %if.end33

if.then30:                                        ; preds = %if.end27
  %8 = load float, ptr %1, align 4
  store float %8, ptr %m_inv_dt0, align 8
  br label %if.end33

if.end33:                                         ; preds = %if.then30, %if.end27
  %m_clearForces = getelementptr inbounds nuw i8, ptr %this, i64 103246
  %9 = load i8, ptr %m_clearForces, align 2
  %tobool34 = trunc i8 %9 to i1
  %m_bodyList.i = getelementptr inbounds nuw i8, ptr %this, i64 103184
  %body.04.i = load ptr, ptr %m_bodyList.i, align 8
  %tobool.not5.i = icmp ne ptr %body.04.i, null
  %or.cond5.not = select i1 %tobool34, i1 %tobool.not5.i, i1 false
  br i1 %or.cond5.not, label %for.body.i, label %if.end36

for.body.i:                                       ; preds = %if.end33, %for.body.i
  %body.06.i = phi ptr [ %body.0.i, %for.body.i ], [ %body.04.i, %if.end33 ]
  %m_force.i = getelementptr inbounds nuw i8, ptr %body.06.i, i64 76
  store float 0.000000e+00, ptr %m_force.i, align 4
  %y.i.i = getelementptr inbounds nuw i8, ptr %body.06.i, i64 80
  store float 0.000000e+00, ptr %y.i.i, align 4
  %m_torque.i = getelementptr inbounds nuw i8, ptr %body.06.i, i64 84
  store float 0.000000e+00, ptr %m_torque.i, align 4
  %m_next.i.i = getelementptr inbounds nuw i8, ptr %body.06.i, i64 104
  %body.0.i = load ptr, ptr %m_next.i.i, align 8
  %tobool.not.i = icmp eq ptr %body.0.i, null
  br i1 %tobool.not.i, label %if.end36, label %for.body.i, !llvm.loop !29

if.end36:                                         ; preds = %for.body.i, %if.end33
  %m_profile = getelementptr inbounds nuw i8, ptr %this, i64 103252
  store i8 0, ptr %m_locked, align 1
  %call38 = call noundef float @_ZNK7b2Timer15GetMillisecondsEv(ptr noundef nonnull align 8 dereferenceable(16) %stepTimer)
  store float %call38, ptr %m_profile, align 4
  ret void
}